target datalayout = "e-m:e-p270:32:32-p271:32:32-p272:64:64-i64:64-i128:128-f80:128-n8:16:32:64-S128"
target triple = "x86_64-pc-linux-gnu"

%"class.duckdb_apache::thrift::TBase" = type { ptr }
%"class.duckdb_parquet::RowGroup" = type <{ %"class.duckdb_apache::thrift::TBase", %"class.duckdb::vector.34", i64, i64, %"class.duckdb::vector.40", i64, i64, i16, %"struct.duckdb_parquet::_RowGroup__isset", [5 x i8] }>
%"class.duckdb::vector.34" = type { %"class.std::vector.35" }
%"class.std::vector.35" = type { %"struct.std::_Vector_base.36" }
%"struct.std::_Vector_base.36" = type { %"struct.std::_Vector_base<duckdb_parquet::ColumnChunk, std::allocator<duckdb_parquet::ColumnChunk>>::_Vector_impl" }
%"struct.std::_Vector_base<duckdb_parquet::ColumnChunk, std::allocator<duckdb_parquet::ColumnChunk>>::_Vector_impl" = type { %"struct.std::_Vector_base<duckdb_parquet::ColumnChunk, std::allocator<duckdb_parquet::ColumnChunk>>::_Vector_impl_data" }
%"struct.std::_Vector_base<duckdb_parquet::ColumnChunk, std::allocator<duckdb_parquet::ColumnChunk>>::_Vector_impl_data" = type { ptr, ptr, ptr }
%"class.duckdb::vector.40" = type { %"class.std::vector.41" }
%"class.std::vector.41" = type { %"struct.std::_Vector_base.42" }
%"struct.std::_Vector_base.42" = type { %"struct.std::_Vector_base<duckdb_parquet::SortingColumn, std::allocator<duckdb_parquet::SortingColumn>>::_Vector_impl" }
%"struct.std::_Vector_base<duckdb_parquet::SortingColumn, std::allocator<duckdb_parquet::SortingColumn>>::_Vector_impl" = type { %"struct.std::_Vector_base<duckdb_parquet::SortingColumn, std::allocator<duckdb_parquet::SortingColumn>>::_Vector_impl_data" }
%"struct.std::_Vector_base<duckdb_parquet::SortingColumn, std::allocator<duckdb_parquet::SortingColumn>>::_Vector_impl_data" = type { ptr, ptr, ptr }
%"struct.duckdb_parquet::_RowGroup__isset" = type { i8 }

; Function Attrs: mustprogress nounwind uwtable
define linkonce_odr void @_ZNSt15__new_allocatorIN14duckdb_parquet13SortingColumnEEC2Ev(ptr noundef nonnull align 1 dereferenceable(1) %0) unnamed_addr #1 comdat align 2 {
  %2 = alloca ptr, align 8
  store ptr %0, ptr %2, align 8, !tbaa !826
  ret void
}

; Function Attrs: mustprogress nounwind uwtable
define linkonce_odr void @_ZNSt15__new_allocatorIN14duckdb_parquet11ColumnChunkEEC2Ev(ptr noundef nonnull align 1 dereferenceable(1) %0) unnamed_addr #1 comdat align 2 {
  %2 = alloca ptr, align 8
  store ptr %0, ptr %2, align 8, !tbaa !834
  ret void
}

; Function Attrs: mustprogress nounwind uwtable
define linkonce_odr void @_ZNSt12_Vector_baseIN14duckdb_parquet13SortingColumnESaIS1_EE17_Vector_impl_dataC2Ev(ptr noundef nonnull align 8 dereferenceable(24) %0) unnamed_addr #1 comdat align 2 {
  %2 = alloca ptr, align 8
  store ptr %0, ptr %2, align 8, !tbaa !1121
  %3 = load ptr, ptr %2, align 8
  %4 = getelementptr inbounds nuw %"struct.std::_Vector_base<duckdb_parquet::SortingColumn, std::allocator<duckdb_parquet::SortingColumn>>::_Vector_impl_data", ptr %3, i32 0, i32 0
  store ptr null, ptr %4, align 8, !tbaa !503
  %5 = getelementptr inbounds nuw %"struct.std::_Vector_base<duckdb_parquet::SortingColumn, std::allocator<duckdb_parquet::SortingColumn>>::_Vector_impl_data", ptr %3, i32 0, i32 1
  store ptr null, ptr %5, align 8, !tbaa !513
  %6 = getelementptr inbounds nuw %"struct.std::_Vector_base<duckdb_parquet::SortingColumn, std::allocator<duckdb_parquet::SortingColumn>>::_Vector_impl_data", ptr %3, i32 0, i32 2
  store ptr null, ptr %6, align 8, !tbaa !824
  ret void
}

; Function Attrs: mustprogress nounwind uwtable
define linkonce_odr void @_ZNSaIN14duckdb_parquet13SortingColumnEEC2Ev(ptr noundef nonnull align 1 dereferenceable(1) %0) unnamed_addr #1 comdat align 2 {
  %2 = alloca ptr, align 8
  store ptr %0, ptr %2, align 8, !tbaa !820
  %3 = load ptr, ptr %2, align 8
  call void @_ZNSt15__new_allocatorIN14duckdb_parquet13SortingColumnEEC2Ev(ptr noundef nonnull align 1 dereferenceable(1) %3) #3
  ret void
}

; Function Attrs: mustprogress nounwind uwtable
define linkonce_odr void @_ZNSt12_Vector_baseIN14duckdb_parquet11ColumnChunkESaIS1_EE17_Vector_impl_dataC2Ev(ptr noundef nonnull align 8 dereferenceable(24) %0) unnamed_addr #1 comdat align 2 {
  %2 = alloca ptr, align 8
  store ptr %0, ptr %2, align 8, !tbaa !1119
  %3 = load ptr, ptr %2, align 8
  %4 = getelementptr inbounds nuw %"struct.std::_Vector_base<duckdb_parquet::ColumnChunk, std::allocator<duckdb_parquet::ColumnChunk>>::_Vector_impl_data", ptr %3, i32 0, i32 0
  store ptr null, ptr %4, align 8, !tbaa !500
  %5 = getelementptr inbounds nuw %"struct.std::_Vector_base<duckdb_parquet::ColumnChunk, std::allocator<duckdb_parquet::ColumnChunk>>::_Vector_impl_data", ptr %3, i32 0, i32 1
  store ptr null, ptr %5, align 8, !tbaa !508
  %6 = getelementptr inbounds nuw %"struct.std::_Vector_base<duckdb_parquet::ColumnChunk, std::allocator<duckdb_parquet::ColumnChunk>>::_Vector_impl_data", ptr %3, i32 0, i32 2
  store ptr null, ptr %6, align 8, !tbaa !832
  ret void
}

; Function Attrs: mustprogress nounwind uwtable
define linkonce_odr void @_ZNSaIN14duckdb_parquet11ColumnChunkEEC2Ev(ptr noundef nonnull align 1 dereferenceable(1) %0) unnamed_addr #1 comdat align 2 {
  %2 = alloca ptr, align 8
  store ptr %0, ptr %2, align 8, !tbaa !828
  %3 = load ptr, ptr %2, align 8
  call void @_ZNSt15__new_allocatorIN14duckdb_parquet11ColumnChunkEEC2Ev(ptr noundef nonnull align 1 dereferenceable(1) %3) #3
  ret void
}

; Function Attrs: mustprogress nounwind uwtable
define linkonce_odr void @_ZNSt12_Vector_baseIN14duckdb_parquet13SortingColumnESaIS1_EE12_Vector_implC2Ev(ptr noundef nonnull align 8 dereferenceable(24) %0) unnamed_addr #1 comdat align 2 {
  %2 = alloca ptr, align 8
  store ptr %0, ptr %2, align 8, !tbaa !838
  %3 = load ptr, ptr %2, align 8
  call void @_ZNSaIN14duckdb_parquet13SortingColumnEEC2Ev(ptr noundef nonnull align 1 dereferenceable(1) %3) #3
  call void @_ZNSt12_Vector_baseIN14duckdb_parquet13SortingColumnESaIS1_EE17_Vector_impl_dataC2Ev(ptr noundef nonnull align 8 dereferenceable(24) %3) #3
  ret void
}

; Function Attrs: mustprogress nounwind uwtable
define linkonce_odr void @_ZNSt12_Vector_baseIN14duckdb_parquet11ColumnChunkESaIS1_EE12_Vector_implC2Ev(ptr noundef nonnull align 8 dereferenceable(24) %0) unnamed_addr #1 comdat align 2 {
  %2 = alloca ptr, align 8
  store ptr %0, ptr %2, align 8, !tbaa !836
  %3 = load ptr, ptr %2, align 8
  call void @_ZNSaIN14duckdb_parquet11ColumnChunkEEC2Ev(ptr noundef nonnull align 1 dereferenceable(1) %3) #3
  call void @_ZNSt12_Vector_baseIN14duckdb_parquet11ColumnChunkESaIS1_EE17_Vector_impl_dataC2Ev(ptr noundef nonnull align 8 dereferenceable(24) %3) #3
  ret void
}

; Function Attrs: mustprogress nounwind uwtable
define linkonce_odr void @_ZNSt12_Vector_baseIN14duckdb_parquet13SortingColumnESaIS1_EEC2Ev(ptr noundef nonnull align 8 dereferenceable(24) %0) unnamed_addr #1 comdat align 2 {
  %2 = alloca ptr, align 8
  store ptr %0, ptr %2, align 8, !tbaa !822
  %3 = load ptr, ptr %2, align 8
  %4 = getelementptr inbounds nuw %"struct.std::_Vector_base.42", ptr %3, i32 0, i32 0
  call void @_ZNSt12_Vector_baseIN14duckdb_parquet13SortingColumnESaIS1_EE12_Vector_implC2Ev(ptr noundef nonnull align 8 dereferenceable(24) %4) #3
  ret void
}

; Function Attrs: mustprogress nounwind uwtable
define linkonce_odr void @_ZNSt12_Vector_baseIN14duckdb_parquet11ColumnChunkESaIS1_EEC2Ev(ptr noundef nonnull align 8 dereferenceable(24) %0) unnamed_addr #1 comdat align 2 {
  %2 = alloca ptr, align 8
  store ptr %0, ptr %2, align 8, !tbaa !830
  %3 = load ptr, ptr %2, align 8
  %4 = getelementptr inbounds nuw %"struct.std::_Vector_base.36", ptr %3, i32 0, i32 0
  call void @_ZNSt12_Vector_baseIN14duckdb_parquet11ColumnChunkESaIS1_EE12_Vector_implC2Ev(ptr noundef nonnull align 8 dereferenceable(24) %4) #3
  ret void
}

; Function Attrs: mustprogress nounwind uwtable
define linkonce_odr void @_ZNSt6vectorIN14duckdb_parquet13SortingColumnESaIS1_EEC2Ev(ptr noundef nonnull align 8 dereferenceable(24) %0) unnamed_addr #1 comdat align 2 {
  %2 = alloca ptr, align 8
  store ptr %0, ptr %2, align 8, !tbaa !501
  %3 = load ptr, ptr %2, align 8
  call void @_ZNSt12_Vector_baseIN14duckdb_parquet13SortingColumnESaIS1_EEC2Ev(ptr noundef nonnull align 8 dereferenceable(24) %3) #3
  ret void
}

; Function Attrs: mustprogress nounwind uwtable
define linkonce_odr void @_ZNSt6vectorIN14duckdb_parquet11ColumnChunkESaIS1_EEC2Ev(ptr noundef nonnull align 8 dereferenceable(24) %0) unnamed_addr #1 comdat align 2 {
  %2 = alloca ptr, align 8
  store ptr %0, ptr %2, align 8, !tbaa !498
  %3 = load ptr, ptr %2, align 8
  call void @_ZNSt12_Vector_baseIN14duckdb_parquet11ColumnChunkESaIS1_EEC2Ev(ptr noundef nonnull align 8 dereferenceable(24) %3) #3
  ret void
}

; Function Attrs: mustprogress nounwind uwtable
define linkonce_odr void @_ZN13duckdb_apache6thrift5TBaseD2Ev(ptr noundef nonnull align 8 dereferenceable(8) %0) unnamed_addr #1 comdat align 2 {
  %2 = alloca ptr, align 8
  store ptr %0, ptr %2, align 8, !tbaa !76
  ret void
}

; Function Attrs: inlinehint mustprogress uwtable
define linkonce_odr noundef nonnull align 8 dereferenceable(24) ptr @_ZN6duckdb6vectorIN14duckdb_parquet13SortingColumnELb1EEaSERKS3_(ptr noundef nonnull align 8 dereferenceable(24) %0, ptr noundef nonnull align 8 dereferenceable(24) %1) #5 comdat align 2 {
  %3 = alloca ptr, align 8
  %4 = alloca ptr, align 8
  store ptr %0, ptr %3, align 8, !tbaa !491
  store ptr %1, ptr %4, align 8, !tbaa !491
  %5 = load ptr, ptr %3, align 8
  %6 = load ptr, ptr %4, align 8, !tbaa !491
  %7 = call noundef nonnull align 8 dereferenceable(24) ptr @_ZNSt6vectorIN14duckdb_parquet13SortingColumnESaIS1_EEaSERKS3_(ptr noundef nonnull align 8 dereferenceable(24) %5, ptr noundef nonnull align 8 dereferenceable(24) %6)
  ret ptr %5
}

; Function Attrs: inlinehint mustprogress uwtable
define linkonce_odr noundef nonnull align 8 dereferenceable(24) ptr @_ZN6duckdb6vectorIN14duckdb_parquet11ColumnChunkELb1EEaSERKS3_(ptr noundef nonnull align 8 dereferenceable(24) %0, ptr noundef nonnull align 8 dereferenceable(24) %1) #5 comdat align 2 {
  %3 = alloca ptr, align 8
  %4 = alloca ptr, align 8
  store ptr %0, ptr %3, align 8, !tbaa !489
  store ptr %1, ptr %4, align 8, !tbaa !489
  %5 = load ptr, ptr %3, align 8
  %6 = load ptr, ptr %4, align 8, !tbaa !489
  %7 = call noundef nonnull align 8 dereferenceable(24) ptr @_ZNSt6vectorIN14duckdb_parquet11ColumnChunkESaIS1_EEaSERKS3_(ptr noundef nonnull align 8 dereferenceable(24) %5, ptr noundef nonnull align 8 dereferenceable(24) %6)
  ret ptr %5
}

; Function Attrs: mustprogress nounwind uwtable
define linkonce_odr void @_ZN14duckdb_parquet16_RowGroup__issetC2Ev(ptr noundef nonnull align 1 dereferenceable(1) %0) unnamed_addr #1 comdat align 2 {
  %2 = alloca ptr, align 8
  store ptr %0, ptr %2, align 8, !tbaa !493
  %3 = load ptr, ptr %2, align 8
  %4 = load i8, ptr %3, align 1
  %5 = and i8 %4, -2
  %6 = or i8 %5, 0
  store i8 %6, ptr %3, align 1
  %7 = load i8, ptr %3, align 1
  %8 = and i8 %7, -3
  %9 = or i8 %8, 0
  store i8 %9, ptr %3, align 1
  %10 = load i8, ptr %3, align 1
  %11 = and i8 %10, -5
  %12 = or i8 %11, 0
  store i8 %12, ptr %3, align 1
  %13 = load i8, ptr %3, align 1
  %14 = and i8 %13, -9
  %15 = or i8 %14, 0
  store i8 %15, ptr %3, align 1
  ret void
}

; Function Attrs: mustprogress nounwind uwtable
define linkonce_odr void @_ZN6duckdb6vectorIN14duckdb_parquet13SortingColumnELb1EEC2Ev(ptr noundef nonnull align 8 dereferenceable(24) %0) unnamed_addr #1 comdat align 2 {
  %2 = alloca ptr, align 8
  store ptr %0, ptr %2, align 8, !tbaa !491
  %3 = load ptr, ptr %2, align 8
  call void @_ZNSt6vectorIN14duckdb_parquet13SortingColumnESaIS1_EEC2Ev(ptr noundef nonnull align 8 dereferenceable(24) %3) #3
  ret void
}

; Function Attrs: mustprogress nounwind uwtable
define linkonce_odr void @_ZN6duckdb6vectorIN14duckdb_parquet11ColumnChunkELb1EEC2Ev(ptr noundef nonnull align 8 dereferenceable(24) %0) unnamed_addr #1 comdat align 2 {
  %2 = alloca ptr, align 8
  store ptr %0, ptr %2, align 8, !tbaa !489
  %3 = load ptr, ptr %2, align 8
  call void @_ZNSt6vectorIN14duckdb_parquet11ColumnChunkESaIS1_EEC2Ev(ptr noundef nonnull align 8 dereferenceable(24) %3) #3
  ret void
}

; Function Attrs: inlinehint mustprogress nounwind uwtable
define linkonce_odr void @_ZN13duckdb_apache6thrift5TBaseC2Ev(ptr noundef nonnull align 8 dereferenceable(8) %0) unnamed_addr #7 comdat align 2 {
  %2 = alloca ptr, align 8
  store ptr %0, ptr %2, align 8, !tbaa !76
  %3 = load ptr, ptr %2, align 8
  store ptr getelementptr inbounds inrange(-16, 32) ({ [6 x ptr] }, ptr @_ZTVN13duckdb_apache6thrift5TBaseE, i32 0, i32 0, i32 2), ptr %3, align 8, !tbaa !36
  ret void
}

; Function Attrs: mustprogress uwtable
define void @_ZN14duckdb_parquet8RowGroupC1ERKS0_(ptr noundef nonnull align 8 dereferenceable(91) %0, ptr noundef nonnull align 8 dereferenceable(91) %1) unnamed_addr #2 align 2 personality ptr @__gxx_personality_v0 {
  %3 = alloca ptr, align 8
  %4 = alloca ptr, align 8
  %5 = alloca ptr, align 8
  %6 = alloca i32, align 4
  store ptr %0, ptr %3, align 8, !tbaa !470
  store ptr %1, ptr %4, align 8, !tbaa !470
  %7 = load ptr, ptr %3, align 8
  call void @_ZN13duckdb_apache6thrift5TBaseC2Ev(ptr noundef nonnull align 8 dereferenceable(8) %7) #3
  store ptr getelementptr inbounds inrange(-48, 40) ({ [11 x ptr] }, ptr @_ZTVN14duckdb_parquet8RowGroupE, i32 0, i32 0, i32 6), ptr %7, align 8, !tbaa !36
  store ptr getelementptr inbounds inrange(-48, 40) ({ [11 x ptr] }, ptr @_ZTVN14duckdb_parquet8RowGroupE, i32 0, i32 0, i32 6), ptr %7, align 8, !tbaa !36
  %8 = getelementptr inbounds nuw %"class.duckdb_parquet::RowGroup", ptr %7, i32 0, i32 1
  call void @_ZN6duckdb6vectorIN14duckdb_parquet11ColumnChunkELb1EEC2Ev(ptr noundef nonnull align 8 dereferenceable(24) %8) #3
  %9 = getelementptr inbounds nuw %"class.duckdb_parquet::RowGroup", ptr %7, i32 0, i32 4
  call void @_ZN6duckdb6vectorIN14duckdb_parquet13SortingColumnELb1EEC2Ev(ptr noundef nonnull align 8 dereferenceable(24) %9) #3
  %10 = getelementptr inbounds nuw %"class.duckdb_parquet::RowGroup", ptr %7, i32 0, i32 8
  invoke void @_ZN14duckdb_parquet16_RowGroup__issetC2Ev(ptr noundef nonnull align 1 dereferenceable(1) %10)
          to label %11 unwind label %45

11:                                               ; preds = %2
  %12 = load ptr, ptr %4, align 8, !tbaa !470
  %13 = getelementptr inbounds nuw %"class.duckdb_parquet::RowGroup", ptr %12, i32 0, i32 1
  %14 = getelementptr inbounds nuw %"class.duckdb_parquet::RowGroup", ptr %7, i32 0, i32 1
  %15 = invoke noundef nonnull align 8 dereferenceable(24) ptr @_ZN6duckdb6vectorIN14duckdb_parquet11ColumnChunkELb1EEaSERKS3_(ptr noundef nonnull align 8 dereferenceable(24) %14, ptr noundef nonnull align 8 dereferenceable(24) %13)
          to label %16 unwind label %45

16:                                               ; preds = %11
  %17 = load ptr, ptr %4, align 8, !tbaa !470
  %18 = getelementptr inbounds nuw %"class.duckdb_parquet::RowGroup", ptr %17, i32 0, i32 2
  %19 = load i64, ptr %18, align 8, !tbaa !472
  %20 = getelementptr inbounds nuw %"class.duckdb_parquet::RowGroup", ptr %7, i32 0, i32 2
  store i64 %19, ptr %20, align 8, !tbaa !472
  %21 = load ptr, ptr %4, align 8, !tbaa !470
  %22 = getelementptr inbounds nuw %"class.duckdb_parquet::RowGroup", ptr %21, i32 0, i32 3
  %23 = load i64, ptr %22, align 8, !tbaa !485
  %24 = getelementptr inbounds nuw %"class.duckdb_parquet::RowGroup", ptr %7, i32 0, i32 3
  store i64 %23, ptr %24, align 8, !tbaa !485
  %25 = load ptr, ptr %4, align 8, !tbaa !470
  %26 = getelementptr inbounds nuw %"class.duckdb_parquet::RowGroup", ptr %25, i32 0, i32 4
  %27 = getelementptr inbounds nuw %"class.duckdb_parquet::RowGroup", ptr %7, i32 0, i32 4
  %28 = invoke noundef nonnull align 8 dereferenceable(24) ptr @_ZN6duckdb6vectorIN14duckdb_parquet13SortingColumnELb1EEaSERKS3_(ptr noundef nonnull align 8 dereferenceable(24) %27, ptr noundef nonnull align 8 dereferenceable(24) %26)
          to label %29 unwind label %45

29:                                               ; preds = %16
  %30 = load ptr, ptr %4, align 8, !tbaa !470
  %31 = getelementptr inbounds nuw %"class.duckdb_parquet::RowGroup", ptr %30, i32 0, i32 5
  %32 = load i64, ptr %31, align 8, !tbaa !486
  %33 = getelementptr inbounds nuw %"class.duckdb_parquet::RowGroup", ptr %7, i32 0, i32 5
  store i64 %32, ptr %33, align 8, !tbaa !486
  %34 = load ptr, ptr %4, align 8, !tbaa !470
  %35 = getelementptr inbounds nuw %"class.duckdb_parquet::RowGroup", ptr %34, i32 0, i32 6
  %36 = load i64, ptr %35, align 8, !tbaa !487
  %37 = getelementptr inbounds nuw %"class.duckdb_parquet::RowGroup", ptr %7, i32 0, i32 6
  store i64 %36, ptr %37, align 8, !tbaa !487
  %38 = load ptr, ptr %4, align 8, !tbaa !470
  %39 = getelementptr inbounds nuw %"class.duckdb_parquet::RowGroup", ptr %38, i32 0, i32 7
  %40 = load i16, ptr %39, align 8, !tbaa !488
  %41 = getelementptr inbounds nuw %"class.duckdb_parquet::RowGroup", ptr %7, i32 0, i32 7
  store i16 %40, ptr %41, align 8, !tbaa !488
  %42 = load ptr, ptr %4, align 8, !tbaa !470
  %43 = getelementptr inbounds nuw %"class.duckdb_parquet::RowGroup", ptr %42, i32 0, i32 8
  %44 = getelementptr inbounds nuw %"class.duckdb_parquet::RowGroup", ptr %7, i32 0, i32 8
  call void @llvm.memcpy.p0.p0.i64(ptr align 2 %44, ptr align 2 %43, i64 1, i1 false), !tbaa.struct !111
  ret void

45:                                               ; preds = %16, %11, %2
  %46 = landingpad { ptr, i32 }
          cleanup
  %47 = extractvalue { ptr, i32 } %46, 0
  store ptr %47, ptr %5, align 8
  %48 = extractvalue { ptr, i32 } %46, 1
  store i32 %48, ptr %6, align 4
  call void @_ZNSt6vectorIN14duckdb_parquet13SortingColumnESaIS1_EED2Ev(ptr noundef nonnull align 8 dereferenceable(24) %9) #3
  call void @_ZNSt6vectorIN14duckdb_parquet11ColumnChunkESaIS1_EED2Ev(ptr noundef nonnull align 8 dereferenceable(24) %8) #3
  call void @_ZN13duckdb_apache6thrift5TBaseD2Ev(ptr noundef nonnull align 8 dereferenceable(8) %7) #3
  br label %49

49:                                               ; preds = %45
  %50 = load ptr, ptr %5, align 8
  %51 = load i32, ptr %6, align 4
  %52 = insertvalue { ptr, i32 } poison, ptr %50, 0
  %53 = insertvalue { ptr, i32 } %52, i32 %51, 1
  resume { ptr, i32 } %53
}