; Function Attrs: mustprogress uwtable
define void @_ZN14duckdb_parquet8RowGroupC1ERKS0_(ptr noundef nonnull align 8 dereferenceable(91) initializes((0, 32), (48, 72)) %0, ptr noundef nonnull align 8 dereferenceable(91) %1) unnamed_addr #2 align 2 personality ptr @__gxx_personality_v0 {
  store ptr getelementptr inbounds nuw inrange(-48, 40) (i8, ptr @_ZTVN14duckdb_parquet8RowGroupE, i64 48), ptr %0, align 8, !tbaa !22
  %3 = getelementptr inbounds nuw i8, ptr %0, i64 8
  tail call void @llvm.memset.p0.i64(ptr noundef nonnull align 8 dereferenceable(24) %3, i8 0, i64 24, i1 false)
  %4 = getelementptr inbounds nuw i8, ptr %0, i64 48
  tail call void @llvm.memset.p0.i64(ptr noundef nonnull align 8 dereferenceable(24) %4, i8 0, i64 24, i1 false)
  %5 = getelementptr inbounds nuw i8, ptr %0, i64 90
  %6 = load i8, ptr %5, align 2
  %7 = and i8 %6, -16
  store i8 %7, ptr %5, align 2
  %8 = getelementptr inbounds nuw i8, ptr %1, i64 8
  %9 = invoke noundef nonnull align 8 dereferenceable(24) ptr @_ZNSt6vectorIN14duckdb_parquet11ColumnChunkESaIS1_EEaSERKS3_(ptr noundef nonnull align 8 dereferenceable(24) %3, ptr noundef nonnull align 8 dereferenceable(24) %8)
          to label %_ZN6duckdb6vectorIN14duckdb_parquet11ColumnChunkELb1EEaSERKS3_.exit unwind label %29

_ZN6duckdb6vectorIN14duckdb_parquet11ColumnChunkELb1EEaSERKS3_.exit: ; preds = %2
  %10 = getelementptr inbounds nuw i8, ptr %1, i64 32
  %11 = load i64, ptr %10, align 8, !tbaa !651
  %12 = getelementptr inbounds nuw i8, ptr %0, i64 32
  store i64 %11, ptr %12, align 8, !tbaa !651
  %13 = getelementptr inbounds nuw i8, ptr %1, i64 40
  %14 = load i64, ptr %13, align 8, !tbaa !662
  %15 = getelementptr inbounds nuw i8, ptr %0, i64 40
  store i64 %14, ptr %15, align 8, !tbaa !662
  %16 = getelementptr inbounds nuw i8, ptr %1, i64 48
  %17 = invoke noundef nonnull align 8 dereferenceable(24) ptr @_ZNSt6vectorIN14duckdb_parquet13SortingColumnESaIS1_EEaSERKS3_(ptr noundef nonnull align 8 dereferenceable(24) %4, ptr noundef nonnull align 8 dereferenceable(24) %16)
          to label %_ZN6duckdb6vectorIN14duckdb_parquet13SortingColumnELb1EEaSERKS3_.exit unwind label %29

_ZN6duckdb6vectorIN14duckdb_parquet13SortingColumnELb1EEaSERKS3_.exit: ; preds = %_ZN6duckdb6vectorIN14duckdb_parquet11ColumnChunkELb1EEaSERKS3_.exit
  %18 = getelementptr inbounds nuw i8, ptr %1, i64 72
  %19 = load i64, ptr %18, align 8, !tbaa !663
  %20 = getelementptr inbounds nuw i8, ptr %0, i64 72
  store i64 %19, ptr %20, align 8, !tbaa !663
  %21 = getelementptr inbounds nuw i8, ptr %1, i64 80
  %22 = load i64, ptr %21, align 8, !tbaa !664
  %23 = getelementptr inbounds nuw i8, ptr %0, i64 80
  store i64 %22, ptr %23, align 8, !tbaa !664
  %24 = getelementptr inbounds nuw i8, ptr %1, i64 88
  %25 = load i16, ptr %24, align 8, !tbaa !665
  %26 = getelementptr inbounds nuw i8, ptr %0, i64 88
  store i16 %25, ptr %26, align 8, !tbaa !665
  %27 = getelementptr inbounds nuw i8, ptr %1, i64 90
  %28 = load i8, ptr %27, align 2, !tbaa !38
  store i8 %28, ptr %5, align 2, !tbaa !38
  ret void

29:                                               ; preds = %_ZN6duckdb6vectorIN14duckdb_parquet11ColumnChunkELb1EEaSERKS3_.exit, %2
  %30 = landingpad { ptr, i32 }
          cleanup
  tail call void @_ZNSt6vectorIN14duckdb_parquet13SortingColumnESaIS1_EED2Ev(ptr noundef nonnull align 8 dereferenceable(24) %4) #26
  tail call void @_ZNSt6vectorIN14duckdb_parquet11ColumnChunkESaIS1_EED2Ev(ptr noundef nonnull align 8 dereferenceable(24) %3) #26
  resume { ptr, i32 } %30
}